target datalayout = "e-m:e-p270:32:32-p271:32:32-p272:64:64-i64:64-i128:128-f80:128-n8:16:32:64-S128"
target triple = "x86_64-pc-linux-gnu"

%"class.grpc_core::RefCountedPtr" = type { ptr }
%"class.grpc_core::ClientAuthFilter" = type { %"class.grpc_core::ImplementChannelFilter", %"struct.grpc_call_credentials::GetRequestMetadataArgs" }
%"class.grpc_core::ImplementChannelFilter" = type { %"class.grpc_core::ChannelFilter" }
%"class.grpc_core::ChannelFilter" = type { ptr }
%"struct.grpc_call_credentials::GetRequestMetadataArgs" = type { %"class.grpc_core::RefCountedPtr.10", %"class.grpc_core::RefCountedPtr" }
%"class.grpc_core::RefCountedPtr.10" = type { ptr }

; Function Attrs: inlinehint mustprogress nounwind uwtable
define linkonce_odr void @_ZN9grpc_core13ChannelFilterC2Ev(ptr noundef nonnull align 8 dereferenceable(8) %0) unnamed_addr #7 comdat align 2 {
  %2 = alloca ptr, align 8
  store ptr %0, ptr %2, align 8, !tbaa !108
  %3 = load ptr, ptr %2, align 8
  store ptr getelementptr inbounds inrange(-16, 48) ({ [8 x ptr] }, ptr @_ZTVN9grpc_core13ChannelFilterE, i32 0, i32 0, i32 2), ptr %3, align 8, !tbaa !32
  ret void
}

; Function Attrs: mustprogress nounwind uwtable
define linkonce_odr void @_ZN9grpc_core13RefCountedPtrI17grpc_auth_contextEC2EOS2_(ptr noundef nonnull align 8 dereferenceable(8) %0, ptr noundef nonnull align 8 dereferenceable(8) %1) unnamed_addr #6 comdat align 2 {
  %3 = alloca ptr, align 8
  %4 = alloca ptr, align 8
  store ptr %0, ptr %3, align 8, !tbaa !20
  store ptr %1, ptr %4, align 8, !tbaa !20
  %5 = load ptr, ptr %3, align 8
  %6 = getelementptr inbounds nuw %"class.grpc_core::RefCountedPtr", ptr %5, i32 0, i32 0
  store ptr null, ptr %6, align 8, !tbaa !24
  %7 = load ptr, ptr %4, align 8, !tbaa !20
  %8 = getelementptr inbounds nuw %"class.grpc_core::RefCountedPtr", ptr %7, i32 0, i32 0
  %9 = load ptr, ptr %8, align 8, !tbaa !24
  %10 = getelementptr inbounds nuw %"class.grpc_core::RefCountedPtr", ptr %5, i32 0, i32 0
  store ptr %9, ptr %10, align 8, !tbaa !24
  %11 = load ptr, ptr %4, align 8, !tbaa !20
  %12 = getelementptr inbounds nuw %"class.grpc_core::RefCountedPtr", ptr %11, i32 0, i32 0
  store ptr null, ptr %12, align 8, !tbaa !24
  ret void
}

; Function Attrs: mustprogress nounwind uwtable
define linkonce_odr void @_ZN9grpc_core13RefCountedPtrI31grpc_channel_security_connectorEC2EOS2_(ptr noundef nonnull align 8 dereferenceable(8) %0, ptr noundef nonnull align 8 dereferenceable(8) %1) unnamed_addr #6 comdat align 2 {
  %3 = alloca ptr, align 8
  %4 = alloca ptr, align 8
  store ptr %0, ptr %3, align 8, !tbaa !30
  store ptr %1, ptr %4, align 8, !tbaa !30
  %5 = load ptr, ptr %3, align 8
  %6 = getelementptr inbounds nuw %"class.grpc_core::RefCountedPtr.10", ptr %5, i32 0, i32 0
  store ptr null, ptr %6, align 8, !tbaa !36
  %7 = load ptr, ptr %4, align 8, !tbaa !30
  %8 = getelementptr inbounds nuw %"class.grpc_core::RefCountedPtr.10", ptr %7, i32 0, i32 0
  %9 = load ptr, ptr %8, align 8, !tbaa !36
  %10 = getelementptr inbounds nuw %"class.grpc_core::RefCountedPtr.10", ptr %5, i32 0, i32 0
  store ptr %9, ptr %10, align 8, !tbaa !36
  %11 = load ptr, ptr %4, align 8, !tbaa !30
  %12 = getelementptr inbounds nuw %"class.grpc_core::RefCountedPtr.10", ptr %11, i32 0, i32 0
  store ptr null, ptr %12, align 8, !tbaa !36
  ret void
}

; Function Attrs: inlinehint mustprogress nounwind uwtable
define linkonce_odr void @_ZN9grpc_core22ImplementChannelFilterINS_16ClientAuthFilterEEC2Ev(ptr noundef nonnull align 8 dereferenceable(8) %0) unnamed_addr #7 comdat align 2 {
  %2 = alloca ptr, align 8
  store ptr %0, ptr %2, align 8, !tbaa !34
  %3 = load ptr, ptr %2, align 8
  call void @_ZN9grpc_core13ChannelFilterC2Ev(ptr noundef nonnull align 8 dereferenceable(8) %3) #3
  store ptr getelementptr inbounds inrange(-16, 48) ({ [8 x ptr] }, ptr @_ZTVN9grpc_core22ImplementChannelFilterINS_16ClientAuthFilterEEE, i32 0, i32 0, i32 2), ptr %3, align 8, !tbaa !32
  ret void
}

; Function Attrs: mustprogress nounwind uwtable
define void @_ZN9grpc_core16ClientAuthFilterC2ENS_13RefCountedPtrI31grpc_channel_security_connectorEENS1_I17grpc_auth_contextEE(ptr noundef nonnull align 8 dereferenceable(24) %0, ptr noundef %1, ptr noundef %2) unnamed_addr #6 align 2 {
  %4 = alloca ptr, align 8
  %5 = alloca ptr, align 8
  %6 = alloca ptr, align 8
  store ptr %0, ptr %4, align 8, !tbaa !28
  store ptr %1, ptr %5, align 8, !tbaa !30
  store ptr %2, ptr %6, align 8, !tbaa !20
  %7 = load ptr, ptr %4, align 8
  call void @_ZN9grpc_core22ImplementChannelFilterINS_16ClientAuthFilterEEC2Ev(ptr noundef nonnull align 8 dereferenceable(8) %7) #3
  store ptr getelementptr inbounds inrange(-16, 48) ({ [8 x ptr] }, ptr @_ZTVN9grpc_core16ClientAuthFilterE, i32 0, i32 0, i32 2), ptr %7, align 8, !tbaa !32
  %8 = getelementptr inbounds nuw %"class.grpc_core::ClientAuthFilter", ptr %7, i32 0, i32 1
  %9 = getelementptr inbounds nuw %"struct.grpc_call_credentials::GetRequestMetadataArgs", ptr %8, i32 0, i32 0
  call void @_ZN9grpc_core13RefCountedPtrI31grpc_channel_security_connectorEC2EOS2_(ptr noundef nonnull align 8 dereferenceable(8) %9, ptr noundef nonnull align 8 dereferenceable(8) %1) #3
  %10 = getelementptr inbounds nuw %"struct.grpc_call_credentials::GetRequestMetadataArgs", ptr %8, i32 0, i32 1
  call void @_ZN9grpc_core13RefCountedPtrI17grpc_auth_contextEC2EOS2_(ptr noundef nonnull align 8 dereferenceable(8) %10, ptr noundef nonnull align 8 dereferenceable(8) %2) #3
  ret void
}