; Function Attrs: mustprogress nofree norecurse nosync nounwind willreturn memory(argmem: readwrite) uwtable
define void @_ZN9grpc_core16ClientAuthFilterC2ENS_13RefCountedPtrI31grpc_channel_security_connectorEENS1_I17grpc_auth_contextEE(ptr noundef nonnull writeonly align 8 captures(none) dereferenceable(24) initializes((0, 24)) %0, ptr noundef captures(none) %1, ptr noundef captures(none) %2) unnamed_addr #7 align 2 {
  store ptr getelementptr inbounds nuw inrange(-16, 48) (i8, ptr @_ZTVN9grpc_core16ClientAuthFilterE, i64 16), ptr %0, align 8, !tbaa !18
  %4 = getelementptr inbounds nuw i8, ptr %0, i64 8
  store ptr null, ptr %4, align 8, !tbaa !20
  %5 = load ptr, ptr %1, align 8, !tbaa !20
  store ptr %5, ptr %4, align 8, !tbaa !20
  store ptr null, ptr %1, align 8, !tbaa !20
  %6 = getelementptr inbounds nuw i8, ptr %0, i64 16
  store ptr null, ptr %6, align 8, !tbaa !16
  %7 = load ptr, ptr %2, align 8, !tbaa !16
  store ptr %7, ptr %6, align 8, !tbaa !16
  store ptr null, ptr %2, align 8, !tbaa !16
  ret void
}